target datalayout = "e-m:e-p270:32:32-p271:32:32-p272:64:64-i64:64-i128:128-f80:128-n8:16:32:64-S128"
target triple = "x86_64-pc-linux-gnu"

%struct.redisObject = type { i32, i32, ptr }

@.str = private unnamed_addr constant [22 x i8] c"o->type == OBJ_STRING\00", align 1
@.str.1 = private unnamed_addr constant [13 x i8] c"networking.c\00", align 1

; Function Attrs: nounwind uwtable
define dso_local i64 @sdsZmallocSize(ptr noundef %0) #0 {
  %2 = alloca ptr, align 8
  %3 = alloca ptr, align 8
  store ptr %0, ptr %2, align 8, !tbaa !5
  call void @llvm.lifetime.start.p0(i64 8, ptr %3) #16
  %4 = load ptr, ptr %2, align 8, !tbaa !5
  %5 = call ptr @sdsAllocPtr(ptr noundef %4)
  store ptr %5, ptr %3, align 8, !tbaa !10
  %6 = load ptr, ptr %3, align 8, !tbaa !10
  %7 = call i64 @je_malloc_usable_size(ptr noundef %6) #16
  call void @llvm.lifetime.end.p0(i64 8, ptr %3) #16
  ret i64 %7
}

; Function Attrs: nounwind uwtable
define dso_local i64 @getStringObjectSdsUsedMemory(ptr noundef %0) #0 {
  %2 = alloca i64, align 8
  %3 = alloca ptr, align 8
  store ptr %0, ptr %3, align 8, !tbaa !11
  %4 = load ptr, ptr %3, align 8, !tbaa !11
  %5 = load i32, ptr %4, align 8
  %6 = and i32 %5, 15
  %7 = icmp eq i32 %6, 0
  %8 = xor i1 %7, true
  %9 = xor i1 %8, true
  %10 = zext i1 %9 to i32
  %11 = sext i32 %10 to i64
  %12 = call i64 @llvm.expect.i64(i64 %11, i64 1)
  %13 = icmp ne i64 %12, 0
  br i1 %13, label %14, label %15

14:                                               ; preds = %1
  br label %18

15:                                               ; preds = %1
  %16 = load ptr, ptr %3, align 8, !tbaa !11
  call void @_serverAssertWithInfo(ptr noundef null, ptr noundef %16, ptr noundef @.str, ptr noundef @.str.1, i32 noundef 57)
  call void @abort() #17
  unreachable

17:                                               ; No predecessors!
  br label %18

18:                                               ; preds = %17, %14
  %19 = load ptr, ptr %3, align 8, !tbaa !11
  %20 = load i32, ptr %19, align 8
  %21 = lshr i32 %20, 4
  %22 = and i32 %21, 15
  switch i32 %22, label %32 [
    i32 0, label %23
    i32 8, label %28
  ]

23:                                               ; preds = %18
  %24 = load ptr, ptr %3, align 8, !tbaa !11
  %25 = getelementptr inbounds nuw %struct.redisObject, ptr %24, i32 0, i32 2
  %26 = load ptr, ptr %25, align 8, !tbaa !13
  %27 = call i64 @sdsZmallocSize(ptr noundef %26)
  store i64 %27, ptr %2, align 8
  br label %33

28:                                               ; preds = %18
  %29 = load ptr, ptr %3, align 8, !tbaa !11
  %30 = call i64 @je_malloc_usable_size(ptr noundef %29) #16
  %31 = sub i64 %30, 16
  store i64 %31, ptr %2, align 8
  br label %33

32:                                               ; preds = %18
  store i64 0, ptr %2, align 8
  br label %33

33:                                               ; preds = %32, %28, %23
  %34 = load i64, ptr %2, align 8
  ret i64 %34
}