; Function Attrs: nounwind uwtable
define dso_local i64 @getStringObjectSdsUsedMemory(ptr noundef %0) local_unnamed_addr #0 {
  %2 = load i32, ptr %0, align 8
  %3 = and i32 %2, 15
  %4 = icmp eq i32 %3, 0
  br i1 %4, label %6, label %5, !prof !5

5:                                                ; preds = %1
  tail call void @_serverAssertWithInfo(ptr noundef null, ptr noundef nonnull %0, ptr noundef nonnull @.str, ptr noundef nonnull @.str.1, i32 noundef 57) #26
  tail call void @abort() #27
  unreachable

6:                                                ; preds = %1
  %7 = lshr exact i32 %2, 4
  %8 = and i32 %7, 15
  switch i32 %8, label %17 [
    i32 0, label %9
    i32 8, label %14
  ]

9:                                                ; preds = %6
  %10 = getelementptr inbounds nuw i8, ptr %0, i64 8
  %11 = load ptr, ptr %10, align 8, !tbaa !6
  %12 = tail call ptr @sdsAllocPtr(ptr noundef %11) #26
  %13 = tail call i64 @je_malloc_usable_size(ptr noundef %12) #26
  br label %17

14:                                               ; preds = %6
  %15 = tail call i64 @je_malloc_usable_size(ptr noundef nonnull %0) #26
  %16 = add i64 %15, -16
  br label %17

17:                                               ; preds = %6, %14, %9
  %.0 = phi i64 [ %16, %14 ], [ %13, %9 ], [ 0, %6 ]
  ret i64 %.0
}